target datalayout = "e-m:e-p270:32:32-p271:32:32-p272:64:64-i64:64-i128:128-f80:128-n8:16:32:64-S128"
target triple = "x86_64-pc-linux-gnu"

%"class.nix::PosIdx" = type { i32 }
%"struct.nix::Expr" = type { ptr }
%"class.nix::Symbol" = type { i32 }
%"struct.nix::ExprLambda" = type { %"struct.nix::Expr", %"class.nix::PosIdx", %"class.nix::Symbol", %"class.nix::Symbol", ptr, ptr }

; Function Attrs: mustprogress uwtable
define void @_ZN3nix10ExprLambda7setNameENS_6SymbolE(ptr noundef nonnull align 8 dereferenceable(40) %0, i32 %1) unnamed_addr #5 align 2 {
  %3 = alloca %"class.nix::Symbol", align 4
  %4 = alloca ptr, align 8
  %5 = alloca %"class.nix::Symbol", align 4
  %6 = getelementptr inbounds %"class.nix::Symbol", ptr %3, i32 0, i32 0
  store i32 %1, ptr %6, align 4
  store ptr %0, ptr %4, align 8
  %7 = load ptr, ptr %4, align 8
  %8 = getelementptr inbounds %"struct.nix::ExprLambda", ptr %7, i32 0, i32 2
  call void @llvm.memcpy.p0.p0.i64(ptr align 4 %8, ptr align 4 %3, i64 4, i1 false)
  %9 = getelementptr inbounds %"struct.nix::ExprLambda", ptr %7, i32 0, i32 5
  %10 = load ptr, ptr %9, align 8
  call void @llvm.memcpy.p0.p0.i64(ptr align 4 %5, ptr align 4 %3, i64 4, i1 false)
  %11 = getelementptr inbounds %"class.nix::Symbol", ptr %5, i32 0, i32 0
  %12 = load i32, ptr %11, align 4
  %13 = load ptr, ptr %10, align 8
  %14 = getelementptr inbounds ptr, ptr %13, i64 6
  %15 = load ptr, ptr %14, align 8
  call void %15(ptr noundef nonnull align 8 dereferenceable(8) %10, i32 %12)
  ret void
}