; Function Attrs: mustprogress uwtable
define void @_ZN3nix10ExprLambda7setNameENS_6SymbolE(ptr nocapture noundef nonnull align 8 dereferenceable(40) %0, i32 %1) unnamed_addr #4 align 2 {
  %3 = getelementptr inbounds i8, ptr %0, i64 12
  store i32 %1, ptr %3, align 4
  %4 = getelementptr inbounds i8, ptr %0, i64 32
  %5 = load ptr, ptr %4, align 8
  %6 = load ptr, ptr %5, align 8
  %7 = getelementptr inbounds i8, ptr %6, i64 48
  %8 = load ptr, ptr %7, align 8
  tail call void %8(ptr noundef nonnull align 8 dereferenceable(8) %5, i32 %1)
  ret void
}